target datalayout = "e-m:e-p270:32:32-p271:32:32-p272:64:64-i64:64-i128:128-f80:128-n8:16:32:64-S128"
target triple = "x86_64-pc-linux-gnu"

%struct.OSSL_TIME = type { i64 }
%struct.crypto_ex_data_st = type { ptr, ptr }
%struct.CRYPTO_REF_COUNT = type { i32 }
%struct.ssl_st = type { i32, ptr, ptr, ptr, %struct.CRYPTO_REF_COUNT, ptr, %struct.crypto_ex_data_st }
%struct.srp_ctx_st = type { ptr, ptr, ptr, ptr, ptr, ptr, ptr, ptr, ptr, ptr, ptr, ptr, ptr, ptr, i32, i64 }
%struct.ssl_ctx_st = type { ptr, ptr, ptr, ptr, ptr, ptr, ptr, i64, ptr, ptr, i32, %struct.OSSL_TIME, ptr, ptr, ptr, %struct.anon.4, %struct.CRYPTO_REF_COUNT, ptr, ptr, ptr, ptr, ptr, ptr, ptr, ptr, ptr, %struct.crypto_ex_data_st, ptr, ptr, ptr, ptr, ptr, ptr, ptr, i64, i32, i32, i32, i64, ptr, ptr, i32, ptr, ptr, i32, i64, [32 x i8], ptr, ptr, ptr, i32, ptr, ptr, ptr, i64, i64, i64, i64, ptr, ptr, ptr, ptr, ptr, %struct.anon.5, ptr, ptr, ptr, ptr, %struct.srp_ctx_st, %struct.dane_ctx_st, ptr, ptr, ptr, ptr, i32, i32, ptr, ptr, i64, i64, ptr, ptr, ptr, i64, ptr, ptr, i32, ptr, ptr, ptr, [14 x i32], [24 x ptr], [14 x ptr], [14 x i64], i64, ptr, ptr, ptr, i64, i64, ptr, i64, i64, i32, i32, i32, i32, ptr, i64, ptr, i64, i64, ptr, ptr }
%struct.anon.4 = type { i32, i32, i32, i32, i32, i32, i32, i32, i32, i32, i32 }
%struct.anon.5 = type { ptr, ptr, [16 x i8], ptr, ptr, ptr, ptr, ptr, i32, i8, i64, ptr, i64, ptr, i64, ptr, i64, ptr, ptr, i64, ptr, ptr, ptr, i64, ptr, ptr, ptr, ptr, [32 x i8] }
%struct.dane_ctx_st = type { ptr, ptr, i8, i64 }

; Function Attrs: nounwind uwtable
define internal i32 @def_generate_session_id(ptr noundef %0, ptr noundef %1, ptr noundef %2) #0 {
  %4 = alloca i32, align 4
  %5 = alloca ptr, align 8
  %6 = alloca ptr, align 8
  %7 = alloca ptr, align 8
  %8 = alloca i32, align 4
  %9 = alloca i32, align 4
  store ptr %0, ptr %5, align 8, !tbaa !15
  store ptr %1, ptr %6, align 8, !tbaa !127
  store ptr %2, ptr %7, align 8, !tbaa !102
  call void @llvm.lifetime.start.p0(i64 4, ptr %8) #9
  store i32 0, ptr %8, align 4, !tbaa !11
  br label %10

10:                                               ; preds = %35, %3
  %11 = load ptr, ptr %5, align 8, !tbaa !15
  %12 = getelementptr inbounds nuw %struct.ssl_st, ptr %11, i32 0, i32 1
  %13 = load ptr, ptr %12, align 8, !tbaa !128
  %14 = getelementptr inbounds nuw %struct.ssl_ctx_st, ptr %13, i32 0, i32 0
  %15 = load ptr, ptr %14, align 8, !tbaa !129
  %16 = load ptr, ptr %6, align 8, !tbaa !127
  %17 = load ptr, ptr %7, align 8, !tbaa !102
  %18 = load i32, ptr %17, align 4, !tbaa !11
  %19 = zext i32 %18 to i64
  %20 = call i32 @RAND_bytes_ex(ptr noundef %15, ptr noundef %16, i64 noundef %19, i32 noundef 0)
  %21 = icmp sle i32 %20, 0
  br i1 %21, label %22, label %23

22:                                               ; preds = %10
  store i32 0, ptr %4, align 4
  store i32 1, ptr %9, align 4
  br label %42

23:                                               ; preds = %10
  br label %24

24:                                               ; preds = %23
  %25 = load ptr, ptr %5, align 8, !tbaa !15
  %26 = load ptr, ptr %6, align 8, !tbaa !127
  %27 = load ptr, ptr %7, align 8, !tbaa !102
  %28 = load i32, ptr %27, align 4, !tbaa !11
  %29 = call i32 @SSL_has_matching_session_id(ptr noundef %25, ptr noundef %26, i32 noundef %28)
  %30 = icmp ne i32 %29, 0
  br i1 %30, label %31, label %35

31:                                               ; preds = %24
  %32 = load i32, ptr %8, align 4, !tbaa !11
  %33 = add i32 %32, 1
  store i32 %33, ptr %8, align 4, !tbaa !11
  %34 = icmp ult i32 %33, 10
  br label %35

35:                                               ; preds = %31, %24
  %36 = phi i1 [ false, %24 ], [ %34, %31 ]
  br i1 %36, label %10, label %37, !llvm.loop !130

37:                                               ; preds = %35
  %38 = load i32, ptr %8, align 4, !tbaa !11
  %39 = icmp ult i32 %38, 10
  br i1 %39, label %40, label %41

40:                                               ; preds = %37
  store i32 1, ptr %4, align 4
  store i32 1, ptr %9, align 4
  br label %42

41:                                               ; preds = %37
  store i32 0, ptr %4, align 4
  store i32 1, ptr %9, align 4
  br label %42

42:                                               ; preds = %41, %40, %22
  call void @llvm.lifetime.end.p0(i64 4, ptr %8) #9
  %43 = load i32, ptr %4, align 4
  ret i32 %43
}