; Function Attrs: nounwind uwtable
define internal range(i32 0, 2) i32 @def_generate_session_id(ptr noundef %0, ptr noundef %1, ptr noundef readonly captures(none) %2) unnamed_addr #3 {
  %4 = getelementptr inbounds nuw i8, ptr %0, i64 8
  br label %5

5:                                                ; preds = %15, %3
  %.0 = phi i32 [ 0, %3 ], [ %16, %15 ]
  %6 = load ptr, ptr %4, align 8, !tbaa !116
  %7 = load ptr, ptr %6, align 8, !tbaa !117
  %8 = load i32, ptr %2, align 4, !tbaa !92
  %9 = zext i32 %8 to i64
  %10 = tail call i32 @RAND_bytes_ex(ptr noundef %7, ptr noundef %1, i64 noundef %9, i32 noundef 0) #11
  %11 = icmp slt i32 %10, 1
  br i1 %11, label %.loopexit, label %12

12:                                               ; preds = %5
  %13 = load i32, ptr %2, align 4, !tbaa !92
  %14 = tail call i32 @SSL_has_matching_session_id(ptr noundef nonnull %0, ptr noundef %1, i32 noundef %13) #11
  %.not = icmp eq i32 %14, 0
  br i1 %.not, label %.critedge, label %15

15:                                               ; preds = %12
  %16 = add nuw nsw i32 %.0, 1
  %exitcond.not = icmp eq i32 %16, 10
  br i1 %exitcond.not, label %.critedge, label %5, !llvm.loop !118

.critedge:                                        ; preds = %12, %15
  %.1 = phi i32 [ 10, %15 ], [ %.0, %12 ]
  %17 = icmp samesign ult i32 %.1, 10
  %. = zext i1 %17 to i32
  br label %.loopexit

.loopexit:                                        ; preds = %5, %.critedge
  %.08 = phi i32 [ %., %.critedge ], [ 0, %5 ]
  ret i32 %.08
}